target datalayout = "e-m:e-p270:32:32-p271:32:32-p272:64:64-i64:64-i128:128-f80:128-n8:16:32:64-S128"
target triple = "x86_64-pc-linux-gnu"

%"struct.__cxxabiv1::__cxa_eh_globals" = type { ptr, i32 }
%"struct.__cxxabiv1::__cxa_exception" = type { ptr, ptr, ptr, ptr, ptr, i32, i32, ptr, ptr, i64, ptr, %struct._Unwind_Exception }
%struct._Unwind_Exception = type { i64, ptr, i64, i64 }
%"class.std::__exception_ptr::exception_ptr" = type { ptr }

@_ZZN5folly6detail15cxa_get_globalsEvE5cache = internal thread_local global ptr null, align 8

; Function Attrs: alwaysinline mustprogress nounwind uwtable
define linkonce_odr void @_ZN5folly28compiler_may_unsafely_assumeEb(i1 noundef zeroext %0) #4 comdat {
  %2 = alloca i8, align 1
  %3 = zext i1 %0 to i8
  store i8 %3, ptr %2, align 1, !tbaa !12
  br label %4

4:                                                ; preds = %1
  br label %5

5:                                                ; preds = %4
  %6 = load i8, ptr %2, align 1, !tbaa !12, !range !14, !noundef !15
  %7 = trunc i8 %6 to i1
  call void @llvm.assume(i1 %7)
  ret void
}

; Function Attrs: noinline noreturn nounwind uwtable
define linkonce_odr hidden void @__clang_call_terminate(ptr noundef %0) #5 comdat {
  %2 = call ptr @__cxa_begin_catch(ptr %0) #20
  call void @_ZSt9terminatev() #22
  unreachable
}

; Function Attrs: inlinehint mustprogress nounwind uwtable
define linkonce_odr void @_ZNSt15__exception_ptr13exception_ptrC2ERKS0_(ptr noundef nonnull align 8 dereferenceable(8) %0, ptr noundef nonnull align 8 dereferenceable(8) %1) unnamed_addr #9 comdat align 2 {
  %3 = alloca ptr, align 8
  %4 = alloca ptr, align 8
  store ptr %0, ptr %3, align 8, !tbaa !28
  store ptr %1, ptr %4, align 8, !tbaa !28
  %5 = load ptr, ptr %3, align 8
  %6 = getelementptr inbounds nuw %"class.std::__exception_ptr::exception_ptr", ptr %5, i32 0, i32 0
  %7 = load ptr, ptr %4, align 8, !tbaa !28
  %8 = getelementptr inbounds nuw %"class.std::__exception_ptr::exception_ptr", ptr %7, i32 0, i32 0
  %9 = load ptr, ptr %8, align 8, !tbaa !39
  store ptr %9, ptr %6, align 8, !tbaa !39
  %10 = getelementptr inbounds nuw %"class.std::__exception_ptr::exception_ptr", ptr %5, i32 0, i32 0
  %11 = load ptr, ptr %10, align 8, !tbaa !39
  %12 = icmp ne ptr %11, null
  br i1 %12, label %13, label %14

13:                                               ; preds = %2
  call void @_ZNSt15__exception_ptr13exception_ptr9_M_addrefEv(ptr noundef nonnull align 8 dereferenceable(8) %5) #20
  br label %14

14:                                               ; preds = %13, %2
  ret void
}

; Function Attrs: alwaysinline mustprogress uwtable
define linkonce_odr void @_ZN5folly6assumeEb(i1 noundef zeroext %0) #11 comdat {
  %2 = alloca i8, align 1
  %3 = zext i1 %0 to i8
  store i8 %3, ptr %2, align 1, !tbaa !12
  %4 = load i8, ptr %2, align 1, !tbaa !12, !range !14, !noundef !15
  %5 = trunc i8 %4 to i1
  call void @_ZN5folly28compiler_may_unsafely_assumeEb(i1 noundef zeroext %5)
  ret void
}

; Function Attrs: inlinehint mustprogress nounwind uwtable
define linkonce_odr void @_ZNSt15__exception_ptr13exception_ptrC2Ev(ptr noundef nonnull align 8 dereferenceable(8) %0) unnamed_addr #9 comdat align 2 {
  %2 = alloca ptr, align 8
  store ptr %0, ptr %2, align 8, !tbaa !28
  %3 = load ptr, ptr %2, align 8
  %4 = getelementptr inbounds nuw %"class.std::__exception_ptr::exception_ptr", ptr %3, i32 0, i32 0
  store ptr null, ptr %4, align 8, !tbaa !39
  ret void
}

; Function Attrs: mustprogress nounwind willreturn memory(none) uwtable
define noundef nonnull align 8 dereferenceable(16) ptr @_ZN5folly6detail15cxa_get_globalsEv() #6 {
  %1 = call align 8 ptr @llvm.threadlocal.address.p0(ptr align 8 @_ZZN5folly6detail15cxa_get_globalsEvE5cache)
  %2 = load ptr, ptr %1, align 8, !tbaa !42
  %3 = icmp ne ptr %2, null
  %4 = xor i1 %3, true
  %5 = xor i1 %4, true
  %6 = zext i1 %5 to i64
  %7 = call i64 @llvm.expect.i64(i64 %6, i64 1)
  %8 = icmp ne i64 %7, 0
  br i1 %8, label %9, label %12

9:                                                ; preds = %0
  %10 = call align 8 ptr @llvm.threadlocal.address.p0(ptr align 8 @_ZZN5folly6detail15cxa_get_globalsEvE5cache)
  %11 = load ptr, ptr %10, align 8, !tbaa !42
  br label %15

12:                                               ; preds = %0
  %13 = call ptr @__cxa_get_globals() #19
  %14 = call align 8 ptr @llvm.threadlocal.address.p0(ptr align 8 @_ZZN5folly6detail15cxa_get_globalsEvE5cache)
  store ptr %13, ptr %14, align 8, !tbaa !42
  br label %15

15:                                               ; preds = %12, %9
  %16 = phi ptr [ %11, %9 ], [ %13, %12 ]
  ret ptr %16
}

; Function Attrs: mustprogress nounwind uwtable
define void @_ZN5folly17current_exceptionEv(ptr dead_on_unwind noalias writable sret(%"class.std::__exception_ptr::exception_ptr") align 8 %0) #0 personality ptr @__gxx_personality_v0 {
  %2 = alloca ptr, align 8
  %3 = alloca ptr, align 8
  %4 = alloca ptr, align 8
  %5 = alloca i32, align 4
  %6 = alloca i64, align 8
  %7 = alloca ptr, align 8
  %8 = alloca ptr, align 8
  store ptr %0, ptr %2, align 8
  call void @llvm.lifetime.start.p0(i64 8, ptr %3) #20
  %9 = call noundef nonnull align 8 dereferenceable(16) ptr @_ZN5folly6detail15cxa_get_globalsEv() #19
  store ptr %9, ptr %3, align 8, !tbaa !42
  call void @llvm.lifetime.start.p0(i64 8, ptr %4) #20
  %10 = load ptr, ptr %3, align 8, !tbaa !42
  %11 = getelementptr inbounds nuw %"struct.__cxxabiv1::__cxa_eh_globals", ptr %10, i32 0, i32 0
  %12 = load ptr, ptr %11, align 8, !tbaa !44
  store ptr %12, ptr %4, align 8, !tbaa !31
  %13 = load ptr, ptr %4, align 8, !tbaa !31
  %14 = icmp ne ptr %13, null
  br i1 %14, label %16, label %15

15:                                               ; preds = %1
  call void @_ZNSt15__exception_ptr13exception_ptrC2Ev(ptr noundef nonnull align 8 dereferenceable(8) %0) #20
  store i32 1, ptr %5, align 4
  br label %40

16:                                               ; preds = %1
  call void @llvm.lifetime.start.p0(i64 8, ptr %6) #20
  store i64 0, ptr %6, align 8, !tbaa !46
  %17 = load ptr, ptr %4, align 8, !tbaa !31
  %18 = getelementptr inbounds nuw %"struct.__cxxabiv1::__cxa_exception", ptr %17, i32 0, i32 11
  %19 = getelementptr inbounds nuw %struct._Unwind_Exception, ptr %18, i32 0, i32 0
  call void @llvm.memcpy.p0.p0.i64(ptr align 8 %6, ptr align 16 %19, i64 8, i1 false)
  %20 = load i64, ptr %6, align 8, !tbaa !46
  switch i64 %20, label %38 [
    i64 5138137972254386944, label %21
    i64 5138137972254386945, label %29
  ]

21:                                               ; preds = %16
  call void @llvm.lifetime.start.p0(i64 8, ptr %7) #20
  %22 = load ptr, ptr %4, align 8, !tbaa !31
  %23 = getelementptr inbounds %"struct.__cxxabiv1::__cxa_exception", ptr %22, i64 1
  store ptr %23, ptr %7, align 8, !tbaa !30
  %24 = load ptr, ptr %7, align 8, !tbaa !30
  %25 = icmp ne ptr %24, null
  %26 = xor i1 %25, true
  %27 = xor i1 %26, true
  invoke void @_ZN5folly6assumeEb(i1 noundef zeroext %27)
          to label %28 unwind label %41

28:                                               ; preds = %21
  call void @_ZNSt15__exception_ptr13exception_ptrC2ERKS0_(ptr noundef nonnull align 8 dereferenceable(8) %0, ptr noundef nonnull align 8 dereferenceable(8) %7) #20
  store i32 1, ptr %5, align 4
  call void @llvm.lifetime.end.p0(i64 8, ptr %7) #20
  br label %39

29:                                               ; preds = %16
  call void @llvm.lifetime.start.p0(i64 8, ptr %8) #20
  %30 = load ptr, ptr %4, align 8, !tbaa !31
  %31 = getelementptr inbounds nuw %"struct.__cxxabiv1::__cxa_exception", ptr %30, i32 0, i32 0
  %32 = load ptr, ptr %31, align 16, !tbaa !33
  store ptr %32, ptr %8, align 8, !tbaa !30
  %33 = load ptr, ptr %8, align 8, !tbaa !30
  %34 = icmp ne ptr %33, null
  %35 = xor i1 %34, true
  %36 = xor i1 %35, true
  invoke void @_ZN5folly6assumeEb(i1 noundef zeroext %36)
          to label %37 unwind label %41

37:                                               ; preds = %29
  call void @_ZNSt15__exception_ptr13exception_ptrC2ERKS0_(ptr noundef nonnull align 8 dereferenceable(8) %0, ptr noundef nonnull align 8 dereferenceable(8) %8) #20
  store i32 1, ptr %5, align 4
  call void @llvm.lifetime.end.p0(i64 8, ptr %8) #20
  br label %39

38:                                               ; preds = %16
  call void @_ZNSt15__exception_ptr13exception_ptrC2Ev(ptr noundef nonnull align 8 dereferenceable(8) %0) #20
  store i32 1, ptr %5, align 4
  br label %39

39:                                               ; preds = %38, %37, %28
  call void @llvm.lifetime.end.p0(i64 8, ptr %6) #20
  br label %40

40:                                               ; preds = %39, %15
  call void @llvm.lifetime.end.p0(i64 8, ptr %4) #20
  call void @llvm.lifetime.end.p0(i64 8, ptr %3) #20
  ret void

41:                                               ; preds = %29, %21
  %42 = landingpad { ptr, i32 }
          catch ptr null
  %43 = extractvalue { ptr, i32 } %42, 0
  call void @__clang_call_terminate(ptr %43) #22
  unreachable
}