; Function Attrs: mustprogress nounwind uwtable
define void @_ZN5folly17current_exceptionEv(ptr dead_on_unwind noalias writable sret(%"class.std::__exception_ptr::exception_ptr") align 8 initializes((0, 8)) %0) local_unnamed_addr #8 personality ptr @__gxx_personality_v0 {
  %2 = tail call align 8 ptr @llvm.threadlocal.address.p0(ptr align 8 @_ZZN5folly6detail15cxa_get_globalsEvE5cache)
  %3 = load ptr, ptr %2, align 8, !tbaa !23
  %.not.i = icmp eq ptr %3, null
  br i1 %.not.i, label %4, label %_ZN5folly6detail15cxa_get_globalsEv.exit, !prof !25

4:                                                ; preds = %1
  %5 = tail call ptr @__cxa_get_globals() #21
  store ptr %5, ptr %2, align 8, !tbaa !23
  br label %_ZN5folly6detail15cxa_get_globalsEv.exit

_ZN5folly6detail15cxa_get_globalsEv.exit:         ; preds = %1, %4
  %6 = phi ptr [ %5, %4 ], [ %3, %1 ]
  %7 = load ptr, ptr %6, align 8, !tbaa !26
  %.not = icmp eq ptr %7, null
  br i1 %.not, label %8, label %9

8:                                                ; preds = %_ZN5folly6detail15cxa_get_globalsEv.exit
  store ptr null, ptr %0, align 8, !tbaa !10
  br label %14

9:                                                ; preds = %_ZN5folly6detail15cxa_get_globalsEv.exit
  %10 = getelementptr inbounds nuw i8, ptr %7, i64 80
  %.0.copyload = load i64, ptr %10, align 16
  switch i64 %.0.copyload, label %13 [
    i64 5138137972254386944, label %_ZNSt15__exception_ptr13exception_ptrC2ERKS0_.exit
    i64 5138137972254386945, label %_ZNSt15__exception_ptr13exception_ptrC2ERKS0_.exit7
  ]

_ZNSt15__exception_ptr13exception_ptrC2ERKS0_.exit: ; preds = %9
  %11 = getelementptr inbounds nuw i8, ptr %7, i64 112
  store ptr %11, ptr %0, align 8, !tbaa !10
  tail call void @_ZNSt15__exception_ptr13exception_ptr9_M_addrefEv(ptr noundef nonnull align 8 dereferenceable(8) %0) #22
  br label %14

_ZNSt15__exception_ptr13exception_ptrC2ERKS0_.exit7: ; preds = %9
  %12 = load ptr, ptr %7, align 16, !tbaa !14, !nonnull !28, !noundef !28
  store ptr %12, ptr %0, align 8, !tbaa !10
  tail call void @_ZNSt15__exception_ptr13exception_ptr9_M_addrefEv(ptr noundef nonnull align 8 dereferenceable(8) %0) #22
  br label %14

13:                                               ; preds = %9
  store ptr null, ptr %0, align 8, !tbaa !10
  br label %14

14:                                               ; preds = %_ZNSt15__exception_ptr13exception_ptrC2ERKS0_.exit, %_ZNSt15__exception_ptr13exception_ptrC2ERKS0_.exit7, %13, %8
  ret void
}